(dp0
Vengine
p1
Vpdflatex
p2
sVpackages
p3
c__builtin__
set
p4
((lp5
Vhyperref
p6
aVtikz
p7
aVxcolor
p8
aVverbatim
p9
aVamsmath
p10
aVinputenc
p11
aVfullpage
p12
aVlistings
p13
aVenumitem
p14
aVsectsty
p15
aVamsthm
p16
aVlipsum
p17
aVenumerate
p18
aVamsfonts
p19
aVgraphicx
p20
aVetoolbox
p21
aVamssymb
p22
atp23
Rp24
sVfiles_with_guttermarks
p25
g4
((lp26
V/Users/ericboris/Documents/CSE421/HW4/p1/./hw4 p1.tex
p27
aS'hw4 p1.tex'
p28
atp29
Rp30
sVsynctex
p31
I01
s.