(dp0
Vengine
p1
Vpdflatex
p2
sVpackages
p3
c__builtin__
set
p4
((lp5
Vhyperref
p6
aVtikz
p7
aVxcolor
p8
aVverbatim
p9
aVamsmath
p10
aVinputenc
p11
aVfullpage
p12
aVlistings
p13
aVenumitem
p14
aVsectsty
p15
aVamsthm
p16
aVlipsum
p17
aVenumerate
p18
aVamsfonts
p19
aVamssymb
p20
aVgraphicx
p21
aVetoolbox
p22
aVparskip
p23
atp24
Rp25
sVfiles_with_guttermarks
p26
g4
((lp27
S'hw6 p3.tex'
p28
aV/Users/ericboris/Documents/CSE421/HW6/p3/./hw6 p3.tex
p29
atp30
Rp31
sVsynctex
p32
I01
s.